target datalayout = "e-m:e-p270:32:32-p271:32:32-p272:64:64-i64:64-i128:128-f80:128-n8:16:32:64-S128"
target triple = "x86_64-pc-linux-gnu"

%struct.Curl_addrinfo = type { i32, i32, i32, i32, i32, ptr, ptr, ptr }
%struct.Curl_sockaddr_ex = type { i32, i32, i32, i32, %union.anon }
%union.anon = type { %struct.Curl_sockaddr_storage }
%struct.Curl_sockaddr_storage = type { %union.anon.0 }
%union.anon.0 = type { %struct.sockaddr_storage }
%struct.sockaddr_storage = type { i16, [118 x i8], i64 }
%struct.curltime = type { i64, i32 }
%struct.ip_quadruple = type { [46 x i8], [46 x i8], i32, i32 }
%struct.cf_socket_ctx = type { i32, %struct.Curl_sockaddr_ex, i32, %struct.ip_quadruple, %struct.curltime, %struct.curltime, %struct.curltime, i32, i8 }

@Curl_cfree = external global ptr, align 8
@Curl_ccalloc = external global ptr, align 8

; Function Attrs: nounwind uwtable
define hidden i32 @Curl_sock_assign_addr(ptr noundef %0, ptr noundef %1, i32 noundef %2) #0 {
  %4 = alloca i32, align 4
  %5 = alloca ptr, align 8
  %6 = alloca ptr, align 8
  %7 = alloca i32, align 4
  store ptr %0, ptr %5, align 8, !tbaa !3
  store ptr %1, ptr %6, align 8, !tbaa !8
  store i32 %2, ptr %7, align 4, !tbaa !10
  %8 = load ptr, ptr %6, align 8, !tbaa !8
  %9 = getelementptr inbounds nuw %struct.Curl_addrinfo, ptr %8, i32 0, i32 1
  %10 = load i32, ptr %9, align 4, !tbaa !12
  %11 = load ptr, ptr %5, align 8, !tbaa !3
  %12 = getelementptr inbounds nuw %struct.Curl_sockaddr_ex, ptr %11, i32 0, i32 0
  store i32 %10, ptr %12, align 8, !tbaa !16
  %13 = load i32, ptr %7, align 4, !tbaa !10
  switch i32 %13, label %24 [
    i32 3, label %14
    i32 6, label %19
  ]

14:                                               ; preds = %3
  %15 = load ptr, ptr %5, align 8, !tbaa !3
  %16 = getelementptr inbounds nuw %struct.Curl_sockaddr_ex, ptr %15, i32 0, i32 1
  store i32 1, ptr %16, align 4, !tbaa !18
  %17 = load ptr, ptr %5, align 8, !tbaa !3
  %18 = getelementptr inbounds nuw %struct.Curl_sockaddr_ex, ptr %17, i32 0, i32 2
  store i32 6, ptr %18, align 8, !tbaa !19
  br label %29

19:                                               ; preds = %3
  %20 = load ptr, ptr %5, align 8, !tbaa !3
  %21 = getelementptr inbounds nuw %struct.Curl_sockaddr_ex, ptr %20, i32 0, i32 1
  store i32 1, ptr %21, align 4, !tbaa !18
  %22 = load ptr, ptr %5, align 8, !tbaa !3
  %23 = getelementptr inbounds nuw %struct.Curl_sockaddr_ex, ptr %22, i32 0, i32 2
  store i32 0, ptr %23, align 8, !tbaa !19
  br label %29

24:                                               ; preds = %3
  %25 = load ptr, ptr %5, align 8, !tbaa !3
  %26 = getelementptr inbounds nuw %struct.Curl_sockaddr_ex, ptr %25, i32 0, i32 1
  store i32 2, ptr %26, align 4, !tbaa !18
  %27 = load ptr, ptr %5, align 8, !tbaa !3
  %28 = getelementptr inbounds nuw %struct.Curl_sockaddr_ex, ptr %27, i32 0, i32 2
  store i32 17, ptr %28, align 8, !tbaa !19
  br label %29

29:                                               ; preds = %24, %19, %14
  %30 = load ptr, ptr %6, align 8, !tbaa !8
  %31 = getelementptr inbounds nuw %struct.Curl_addrinfo, ptr %30, i32 0, i32 4
  %32 = load i32, ptr %31, align 8, !tbaa !20
  %33 = load ptr, ptr %5, align 8, !tbaa !3
  %34 = getelementptr inbounds nuw %struct.Curl_sockaddr_ex, ptr %33, i32 0, i32 3
  store i32 %32, ptr %34, align 4, !tbaa !21
  %35 = load ptr, ptr %5, align 8, !tbaa !3
  %36 = getelementptr inbounds nuw %struct.Curl_sockaddr_ex, ptr %35, i32 0, i32 3
  %37 = load i32, ptr %36, align 4, !tbaa !21
  %38 = zext i32 %37 to i64
  %39 = icmp ugt i64 %38, 128
  br i1 %39, label %40, label %43

40:                                               ; preds = %29
  br label %41

41:                                               ; preds = %40
  br label %42

42:                                               ; preds = %41
  store i32 100, ptr %4, align 4
  br label %53

43:                                               ; preds = %29
  %44 = load ptr, ptr %5, align 8, !tbaa !3
  %45 = getelementptr inbounds nuw %struct.Curl_sockaddr_ex, ptr %44, i32 0, i32 4
  %46 = load ptr, ptr %6, align 8, !tbaa !8
  %47 = getelementptr inbounds nuw %struct.Curl_addrinfo, ptr %46, i32 0, i32 6
  %48 = load ptr, ptr %47, align 8, !tbaa !22
  %49 = load ptr, ptr %5, align 8, !tbaa !3
  %50 = getelementptr inbounds nuw %struct.Curl_sockaddr_ex, ptr %49, i32 0, i32 3
  %51 = load i32, ptr %50, align 4, !tbaa !21
  %52 = zext i32 %51 to i64
  call void @llvm.memcpy.p0.p0.i64(ptr align 8 %45, ptr align 2 %48, i64 %52, i1 false)
  store i32 0, ptr %4, align 4
  br label %53

53:                                               ; preds = %43, %42
  %54 = load i32, ptr %4, align 4
  ret i32 %54
}

; Function Attrs: nounwind uwtable
define internal i32 @cf_socket_ctx_init(ptr noundef %0, ptr noundef %1, i32 noundef %2) #0 {
  %4 = alloca i32, align 4
  %5 = alloca ptr, align 8
  %6 = alloca ptr, align 8
  %7 = alloca i32, align 4
  %8 = alloca i32, align 4
  %9 = alloca i32, align 4
  store ptr %0, ptr %5, align 8, !tbaa !123
  store ptr %1, ptr %6, align 8, !tbaa !8
  store i32 %2, ptr %7, align 4, !tbaa !10
  call void @llvm.lifetime.start.p0(i64 4, ptr %8) #9
  %10 = load ptr, ptr %5, align 8, !tbaa !123
  call void @llvm.memset.p0.i64(ptr align 8 %10, i8 0, i64 312, i1 false)
  %11 = load ptr, ptr %5, align 8, !tbaa !123
  %12 = getelementptr inbounds nuw %struct.cf_socket_ctx, ptr %11, i32 0, i32 2
  store i32 -1, ptr %12, align 8, !tbaa !137
  %13 = load i32, ptr %7, align 4, !tbaa !10
  %14 = load ptr, ptr %5, align 8, !tbaa !123
  %15 = getelementptr inbounds nuw %struct.cf_socket_ctx, ptr %14, i32 0, i32 0
  store i32 %13, ptr %15, align 8, !tbaa !147
  %16 = load ptr, ptr %5, align 8, !tbaa !123
  %17 = getelementptr inbounds nuw %struct.cf_socket_ctx, ptr %16, i32 0, i32 1
  %18 = load ptr, ptr %6, align 8, !tbaa !8
  %19 = load i32, ptr %7, align 4, !tbaa !10
  %20 = call i32 @Curl_sock_assign_addr(ptr noundef %17, ptr noundef %18, i32 noundef %19)
  store i32 %20, ptr %8, align 4, !tbaa !10
  %21 = load i32, ptr %8, align 4, !tbaa !10
  %22 = icmp ne i32 %21, 0
  br i1 %22, label %23, label %25

23:                                               ; preds = %3
  %24 = load i32, ptr %8, align 4, !tbaa !10
  store i32 %24, ptr %4, align 4
  store i32 1, ptr %9, align 4
  br label %27

25:                                               ; preds = %3
  %26 = load i32, ptr %8, align 4, !tbaa !10
  store i32 %26, ptr %4, align 4
  store i32 1, ptr %9, align 4
  br label %27

27:                                               ; preds = %25, %23
  call void @llvm.lifetime.end.p0(i64 4, ptr %8) #9
  %28 = load i32, ptr %4, align 4
  ret i32 %28
}

; Function Attrs: nounwind uwtable
define hidden i32 @Curl_cf_udp_create(ptr noundef %0, ptr noundef %1, ptr noundef %2, ptr noundef %3, i32 noundef %4) #0 {
  %6 = alloca ptr, align 8
  %7 = alloca ptr, align 8
  %8 = alloca ptr, align 8
  %9 = alloca ptr, align 8
  %10 = alloca i32, align 4
  %11 = alloca ptr, align 8
  %12 = alloca ptr, align 8
  %13 = alloca i32, align 4
  store ptr %0, ptr %6, align 8, !tbaa !162
  store ptr %1, ptr %7, align 8, !tbaa !23
  store ptr %2, ptr %8, align 8, !tbaa !109
  store ptr %3, ptr %9, align 8, !tbaa !8
  store i32 %4, ptr %10, align 4, !tbaa !10
  call void @llvm.lifetime.start.p0(i64 8, ptr %11) #9
  store ptr null, ptr %11, align 8, !tbaa !123
  call void @llvm.lifetime.start.p0(i64 8, ptr %12) #9
  store ptr null, ptr %12, align 8, !tbaa !118
  call void @llvm.lifetime.start.p0(i64 4, ptr %13) #9
  br label %14

14:                                               ; preds = %5
  br label %15

15:                                               ; preds = %14
  br label %16

16:                                               ; preds = %15
  %17 = load ptr, ptr @Curl_ccalloc, align 8, !tbaa !117
  %18 = call ptr %17(i64 noundef 1, i64 noundef 312)
  store ptr %18, ptr %11, align 8, !tbaa !123
  %19 = load ptr, ptr %11, align 8, !tbaa !123
  %20 = icmp ne ptr %19, null
  br i1 %20, label %22, label %21

21:                                               ; preds = %16
  store i32 27, ptr %13, align 4, !tbaa !10
  br label %33

22:                                               ; preds = %16
  %23 = load ptr, ptr %11, align 8, !tbaa !123
  %24 = load ptr, ptr %9, align 8, !tbaa !8
  %25 = load i32, ptr %10, align 4, !tbaa !10
  %26 = call i32 @cf_socket_ctx_init(ptr noundef %23, ptr noundef %24, i32 noundef %25)
  store i32 %26, ptr %13, align 4, !tbaa !10
  %27 = load i32, ptr %13, align 4, !tbaa !10
  %28 = icmp ne i32 %27, 0
  br i1 %28, label %29, label %30

29:                                               ; preds = %22
  br label %33

30:                                               ; preds = %22
  %31 = load ptr, ptr %11, align 8, !tbaa !123
  %32 = call i32 @Curl_cf_create(ptr noundef %12, ptr noundef @Curl_cft_udp, ptr noundef %31)
  store i32 %32, ptr %13, align 4, !tbaa !10
  br label %33

33:                                               ; preds = %30, %29, %21
  %34 = load i32, ptr %13, align 4, !tbaa !10
  %35 = icmp ne i32 %34, 0
  br i1 %35, label %38, label %36

36:                                               ; preds = %33
  %37 = load ptr, ptr %12, align 8, !tbaa !118
  br label %39

38:                                               ; preds = %33
  br label %39

39:                                               ; preds = %38, %36
  %40 = phi ptr [ %37, %36 ], [ null, %38 ]
  %41 = load ptr, ptr %6, align 8, !tbaa !162
  store ptr %40, ptr %41, align 8, !tbaa !118
  %42 = load i32, ptr %13, align 4, !tbaa !10
  %43 = icmp ne i32 %42, 0
  br i1 %43, label %44, label %55

44:                                               ; preds = %39
  br label %45

45:                                               ; preds = %44
  %46 = load ptr, ptr @Curl_cfree, align 8, !tbaa !117
  %47 = load ptr, ptr %12, align 8, !tbaa !118
  call void %46(ptr noundef %47)
  store ptr null, ptr %12, align 8, !tbaa !118
  br label %48

48:                                               ; preds = %45
  br label %49

49:                                               ; preds = %48
  br label %50

50:                                               ; preds = %49
  %51 = load ptr, ptr @Curl_cfree, align 8, !tbaa !117
  %52 = load ptr, ptr %11, align 8, !tbaa !123
  call void %51(ptr noundef %52)
  store ptr null, ptr %11, align 8, !tbaa !123
  br label %53

53:                                               ; preds = %50
  br label %54

54:                                               ; preds = %53
  br label %55

55:                                               ; preds = %54, %39
  %56 = load i32, ptr %13, align 4, !tbaa !10
  call void @llvm.lifetime.end.p0(i64 4, ptr %13) #9
  call void @llvm.lifetime.end.p0(i64 8, ptr %12) #9
  call void @llvm.lifetime.end.p0(i64 8, ptr %11) #9
  ret i32 %56
}